target datalayout = "e-m:e-p270:32:32-p271:32:32-p272:64:64-i64:64-i128:128-f80:128-n8:16:32:64-S128"
target triple = "x86_64-pc-linux-gnu"

%struct.H5G_link_table_t = type { i64, ptr }
%struct.H5O_link_t = type { i32, i8, i64, i32, ptr, %union.anon }
%union.anon = type { %struct.H5O_link_ud_t }
%struct.H5O_link_ud_t = type { ptr, i64 }

@H5G_init_g = external global i8, align 1
@H5_libterm_g = external global i8, align 1
@.str = private unnamed_addr constant [104 x i8] c"generated/home/dtcxzyw/WorkSpace/Projects/compilers/llvm-opt-benchmark/bench/hdf5/hdf5/src/H5Gcompact.c\00", align 1
@H5E_SYM_g = external global i64, align 8
@H5E_CANTINIT_g = external global i64, align 8
@.str.2 = private unnamed_addr constant [32 x i8] c"can't create link message table\00", align 1
@H5E_ARGS_g = external global i64, align 8
@.str.3 = private unnamed_addr constant [19 x i8] c"index out of bound\00", align 1
@H5E_CANTFREE_g = external global i64, align 8
@.str.4 = private unnamed_addr constant [29 x i8] c"unable to release link table\00", align 1
@H5E_BADRANGE_g = external global i64, align 8
@__func__.H5G__compact_lookup_by_idx = private unnamed_addr constant [27 x i8] c"H5G__compact_lookup_by_idx\00", align 1
@H5E_CANTCOPY_g = external global i64, align 8
@.str.8 = private unnamed_addr constant [24 x i8] c"can't copy link message\00", align 1

; Function Attrs: nounwind uwtable
define i32 @H5G__compact_lookup_by_idx(ptr noundef %0, ptr noundef %1, i32 noundef %2, i32 noundef %3, i64 noundef %4, ptr noundef %5) #0 {
  %7 = alloca ptr, align 8
  %8 = alloca ptr, align 8
  %9 = alloca i32, align 4
  %10 = alloca i32, align 4
  %11 = alloca i64, align 8
  %12 = alloca ptr, align 8
  %13 = alloca %struct.H5G_link_table_t, align 8
  %14 = alloca i32, align 4
  %15 = alloca i8, align 1
  store ptr %0, ptr %7, align 8, !tbaa !3
  store ptr %1, ptr %8, align 8, !tbaa !18
  store i32 %2, ptr %9, align 4, !tbaa !10
  store i32 %3, ptr %10, align 4, !tbaa !10
  store i64 %4, ptr %11, align 8, !tbaa !16
  store ptr %5, ptr %12, align 8, !tbaa !8
  call void @llvm.lifetime.start.p0(i64 16, ptr %13) #8
  call void @llvm.memset.p0.i64(ptr align 8 %13, i8 0, i64 16, i1 false)
  call void @llvm.lifetime.start.p0(i64 4, ptr %14) #8
  store i32 0, ptr %14, align 4, !tbaa !10
  call void @llvm.lifetime.start.p0(i64 1, ptr %15) #8
  store i8 0, ptr %15, align 1, !tbaa !12
  %16 = load i8, ptr @H5G_init_g, align 1, !tbaa !12, !range !14, !noundef !15
  %17 = trunc i8 %16 to i1
  br i1 %17, label %22, label %18

18:                                               ; preds = %6
  %19 = load i8, ptr @H5_libterm_g, align 1, !tbaa !12, !range !14, !noundef !15
  %20 = trunc i8 %19 to i1
  %21 = xor i1 %20, true
  br label %22

22:                                               ; preds = %18, %6
  %23 = phi i1 [ true, %6 ], [ %21, %18 ]
  %24 = xor i1 %23, true
  %25 = xor i1 %24, true
  %26 = zext i1 %25 to i32
  %27 = sext i32 %26 to i64
  %28 = call i64 @llvm.expect.i64(i64 %27, i64 1)
  %29 = icmp ne i64 %28, 0
  br i1 %29, label %30, label %132

30:                                               ; preds = %22
  %31 = load ptr, ptr %7, align 8, !tbaa !3
  %32 = load ptr, ptr %8, align 8, !tbaa !18
  %33 = load i32, ptr %9, align 4, !tbaa !10
  %34 = load i32, ptr %10, align 4, !tbaa !10
  %35 = call i32 @H5G__compact_build_table(ptr noundef %31, ptr noundef %32, i32 noundef %33, i32 noundef %34, ptr noundef %13)
  %36 = icmp slt i32 %35, 0
  br i1 %36, label %37, label %56

37:                                               ; preds = %30
  br label %38

38:                                               ; preds = %37
  br label %39

39:                                               ; preds = %38
  br label %40

40:                                               ; preds = %39
  %41 = load i64, ptr @H5E_SYM_g, align 8, !tbaa !16
  %42 = load i64, ptr @H5E_CANTINIT_g, align 8, !tbaa !16
  %43 = call i32 (ptr, ptr, i32, i64, i64, ptr, ...) @H5E_printf_stack(ptr noundef @.str, ptr noundef @__func__.H5G__compact_lookup_by_idx, i32 noundef 497, i64 noundef %41, i64 noundef %42, ptr noundef @.str.2)
  br label %44

44:                                               ; preds = %40
  br label %45

45:                                               ; preds = %44
  store i8 1, ptr %15, align 1, !tbaa !12
  %46 = load i8, ptr %15, align 1, !tbaa !12, !range !14, !noundef !15
  %47 = trunc i8 %46 to i1
  %48 = zext i1 %47 to i8
  store i8 %48, ptr %15, align 1, !tbaa !12
  br label %49

49:                                               ; preds = %45
  br label %50

50:                                               ; preds = %49
  br label %51

51:                                               ; preds = %50
  store i32 -1, ptr %14, align 4, !tbaa !10
  br label %108

52:                                               ; No predecessors!
  br label %53

53:                                               ; preds = %52
  br label %54

54:                                               ; preds = %53
  br label %55

55:                                               ; preds = %54
  br label %56

56:                                               ; preds = %55, %30
  %57 = load i64, ptr %11, align 8, !tbaa !16
  %58 = getelementptr inbounds nuw %struct.H5G_link_table_t, ptr %13, i32 0, i32 0
  %59 = load i64, ptr %58, align 8, !tbaa !24
  %60 = icmp uge i64 %57, %59
  br i1 %60, label %61, label %80

61:                                               ; preds = %56
  br label %62

62:                                               ; preds = %61
  br label %63

63:                                               ; preds = %62
  br label %64

64:                                               ; preds = %63
  %65 = load i64, ptr @H5E_ARGS_g, align 8, !tbaa !16
  %66 = load i64, ptr @H5E_BADRANGE_g, align 8, !tbaa !16
  %67 = call i32 (ptr, ptr, i32, i64, i64, ptr, ...) @H5E_printf_stack(ptr noundef @.str, ptr noundef @__func__.H5G__compact_lookup_by_idx, i32 noundef 501, i64 noundef %65, i64 noundef %66, ptr noundef @.str.3)
  br label %68

68:                                               ; preds = %64
  br label %69

69:                                               ; preds = %68
  store i8 1, ptr %15, align 1, !tbaa !12
  %70 = load i8, ptr %15, align 1, !tbaa !12, !range !14, !noundef !15
  %71 = trunc i8 %70 to i1
  %72 = zext i1 %71 to i8
  store i8 %72, ptr %15, align 1, !tbaa !12
  br label %73

73:                                               ; preds = %69
  br label %74

74:                                               ; preds = %73
  br label %75

75:                                               ; preds = %74
  store i32 -1, ptr %14, align 4, !tbaa !10
  br label %108

76:                                               ; No predecessors!
  br label %77

77:                                               ; preds = %76
  br label %78

78:                                               ; preds = %77
  br label %79

79:                                               ; preds = %78
  br label %80

80:                                               ; preds = %79, %56
  %81 = getelementptr inbounds nuw %struct.H5G_link_table_t, ptr %13, i32 0, i32 1
  %82 = load ptr, ptr %81, align 8, !tbaa !26
  %83 = load i64, ptr %11, align 8, !tbaa !16
  %84 = getelementptr inbounds nuw %struct.H5O_link_t, ptr %82, i64 %83
  %85 = load ptr, ptr %12, align 8, !tbaa !8
  %86 = call ptr @H5O_msg_copy(i32 noundef 6, ptr noundef %84, ptr noundef %85)
  %87 = icmp eq ptr null, %86
  br i1 %87, label %88, label %107

88:                                               ; preds = %80
  br label %89

89:                                               ; preds = %88
  br label %90

90:                                               ; preds = %89
  br label %91

91:                                               ; preds = %90
  %92 = load i64, ptr @H5E_SYM_g, align 8, !tbaa !16
  %93 = load i64, ptr @H5E_CANTCOPY_g, align 8, !tbaa !16
  %94 = call i32 (ptr, ptr, i32, i64, i64, ptr, ...) @H5E_printf_stack(ptr noundef @.str, ptr noundef @__func__.H5G__compact_lookup_by_idx, i32 noundef 505, i64 noundef %92, i64 noundef %93, ptr noundef @.str.8)
  br label %95

95:                                               ; preds = %91
  br label %96

96:                                               ; preds = %95
  store i8 1, ptr %15, align 1, !tbaa !12
  %97 = load i8, ptr %15, align 1, !tbaa !12, !range !14, !noundef !15
  %98 = trunc i8 %97 to i1
  %99 = zext i1 %98 to i8
  store i8 %99, ptr %15, align 1, !tbaa !12
  br label %100

100:                                              ; preds = %96
  br label %101

101:                                              ; preds = %100
  br label %102

102:                                              ; preds = %101
  store i32 -1, ptr %14, align 4, !tbaa !10
  br label %108

103:                                              ; No predecessors!
  br label %104

104:                                              ; preds = %103
  br label %105

105:                                              ; preds = %104
  br label %106

106:                                              ; preds = %105
  br label %107

107:                                              ; preds = %106, %80
  br label %108

108:                                              ; preds = %107, %102, %75, %51
  %109 = getelementptr inbounds nuw %struct.H5G_link_table_t, ptr %13, i32 0, i32 1
  %110 = load ptr, ptr %109, align 8, !tbaa !26
  %111 = icmp ne ptr %110, null
  br i1 %111, label %112, label %131

112:                                              ; preds = %108
  %113 = call i32 @H5G__link_release_table(ptr noundef %13)
  %114 = icmp slt i32 %113, 0
  br i1 %114, label %115, label %131

115:                                              ; preds = %112
  br label %116

116:                                              ; preds = %115
  br label %117

117:                                              ; preds = %116
  br label %118

118:                                              ; preds = %117
  %119 = load i64, ptr @H5E_SYM_g, align 8, !tbaa !16
  %120 = load i64, ptr @H5E_CANTFREE_g, align 8, !tbaa !16
  %121 = call i32 (ptr, ptr, i32, i64, i64, ptr, ...) @H5E_printf_stack(ptr noundef @.str, ptr noundef @__func__.H5G__compact_lookup_by_idx, i32 noundef 510, i64 noundef %119, i64 noundef %120, ptr noundef @.str.4)
  br label %122

122:                                              ; preds = %118
  br label %123

123:                                              ; preds = %122
  store i8 1, ptr %15, align 1, !tbaa !12
  %124 = load i8, ptr %15, align 1, !tbaa !12, !range !14, !noundef !15
  %125 = trunc i8 %124 to i1
  %126 = zext i1 %125 to i8
  store i8 %126, ptr %15, align 1, !tbaa !12
  br label %127

127:                                              ; preds = %123
  br label %128

128:                                              ; preds = %127
  store i32 -1, ptr %14, align 4, !tbaa !10
  br label %129

129:                                              ; preds = %128
  br label %130

130:                                              ; preds = %129
  br label %131

131:                                              ; preds = %130, %112, %108
  br label %132

132:                                              ; preds = %131, %22
  %133 = load i32, ptr %14, align 4, !tbaa !10
  call void @llvm.lifetime.end.p0(i64 1, ptr %15) #8
  call void @llvm.lifetime.end.p0(i64 4, ptr %14) #8
  call void @llvm.lifetime.end.p0(i64 16, ptr %13) #8
  ret i32 %133
}