; Function Attrs: nounwind uwtable
define range(i32 -1, 1) i32 @H5G__compact_lookup_by_idx(ptr noundef %0, ptr noundef readonly captures(none) %1, i32 noundef %2, i32 noundef %3, i64 noundef %4, ptr noundef %5) local_unnamed_addr #0 {
  %7 = alloca %struct.H5G_link_table_t, align 8
  call void @llvm.lifetime.start.p0(i64 16, ptr nonnull %7) #8
  call void @llvm.memset.p0.i64(ptr noundef nonnull align 8 dereferenceable(16) %7, i8 0, i64 16, i1 false)
  %8 = load i8, ptr @H5G_init_g, align 1, !tbaa !3, !range !7, !noundef !8
  %9 = trunc nuw i8 %8 to i1
  %10 = load i8, ptr @H5_libterm_g, align 1, !range !7
  %11 = trunc nuw i8 %10 to i1
  %12 = xor i1 %11, true
  %13 = select i1 %9, i1 true, i1 %12
  br i1 %13, label %14, label %47, !prof !9

14:                                               ; preds = %6
  %15 = call fastcc i32 @H5G__compact_build_table(ptr noundef %0, ptr noundef %1, i32 noundef %2, i32 noundef %3, ptr noundef %7)
  %16 = icmp slt i32 %15, 0
  br i1 %16, label %17, label %21

17:                                               ; preds = %14
  %18 = load i64, ptr @H5E_SYM_g, align 8, !tbaa !10
  %19 = load i64, ptr @H5E_CANTINIT_g, align 8, !tbaa !10
  %20 = call i32 (ptr, ptr, i32, i64, i64, ptr, ...) @H5E_printf_stack(ptr noundef nonnull @.str, ptr noundef nonnull @__func__.H5G__compact_lookup_by_idx, i32 noundef 497, i64 noundef %18, i64 noundef %19, ptr noundef nonnull @.str.2) #8
  br label %37

21:                                               ; preds = %14
  %22 = load i64, ptr %7, align 8, !tbaa !12
  %.not = icmp ult i64 %4, %22
  br i1 %.not, label %27, label %23

23:                                               ; preds = %21
  %24 = load i64, ptr @H5E_ARGS_g, align 8, !tbaa !10
  %25 = load i64, ptr @H5E_BADRANGE_g, align 8, !tbaa !10
  %26 = call i32 (ptr, ptr, i32, i64, i64, ptr, ...) @H5E_printf_stack(ptr noundef nonnull @.str, ptr noundef nonnull @__func__.H5G__compact_lookup_by_idx, i32 noundef 501, i64 noundef %24, i64 noundef %25, ptr noundef nonnull @.str.3) #8
  br label %37

27:                                               ; preds = %21
  %28 = getelementptr inbounds nuw i8, ptr %7, i64 8
  %29 = load ptr, ptr %28, align 8, !tbaa !16
  %30 = getelementptr inbounds nuw %struct.H5O_link_t, ptr %29, i64 %4
  %31 = call ptr @H5O_msg_copy(i32 noundef 6, ptr noundef %30, ptr noundef %5) #8
  %32 = icmp eq ptr %31, null
  br i1 %32, label %33, label %37

33:                                               ; preds = %27
  %34 = load i64, ptr @H5E_SYM_g, align 8, !tbaa !10
  %35 = load i64, ptr @H5E_CANTCOPY_g, align 8, !tbaa !10
  %36 = call i32 (ptr, ptr, i32, i64, i64, ptr, ...) @H5E_printf_stack(ptr noundef nonnull @.str, ptr noundef nonnull @__func__.H5G__compact_lookup_by_idx, i32 noundef 505, i64 noundef %34, i64 noundef %35, ptr noundef nonnull @.str.8) #8
  br label %37

37:                                               ; preds = %27, %33, %23, %17
  %.1 = phi i32 [ -1, %17 ], [ -1, %23 ], [ -1, %33 ], [ 0, %27 ]
  %38 = getelementptr inbounds nuw i8, ptr %7, i64 8
  %39 = load ptr, ptr %38, align 8, !tbaa !16
  %.not12 = icmp eq ptr %39, null
  br i1 %.not12, label %47, label %40

40:                                               ; preds = %37
  %41 = call i32 @H5G__link_release_table(ptr noundef nonnull %7) #8
  %42 = icmp slt i32 %41, 0
  br i1 %42, label %43, label %47

43:                                               ; preds = %40
  %44 = load i64, ptr @H5E_SYM_g, align 8, !tbaa !10
  %45 = load i64, ptr @H5E_CANTFREE_g, align 8, !tbaa !10
  %46 = call i32 (ptr, ptr, i32, i64, i64, ptr, ...) @H5E_printf_stack(ptr noundef nonnull @.str, ptr noundef nonnull @__func__.H5G__compact_lookup_by_idx, i32 noundef 510, i64 noundef %44, i64 noundef %45, ptr noundef nonnull @.str.4) #8
  br label %47

47:                                               ; preds = %37, %40, %43, %6
  %.0 = phi i32 [ -1, %43 ], [ %.1, %40 ], [ %.1, %37 ], [ 0, %6 ]
  call void @llvm.lifetime.end.p0(i64 16, ptr nonnull %7) #8
  ret i32 %.0
}